target datalayout = "e-m:e-p270:32:32-p271:32:32-p272:64:64-i64:64-i128:128-f80:128-n8:16:32:64-S128"
target triple = "x86_64-pc-linux-gnu"

%"class.pxrInternal_v0_24__pxrReserved__::TsSpline" = type { %"class.std::shared_ptr" }
%"class.std::shared_ptr" = type { %"class.std::__shared_ptr" }
%"class.std::__shared_ptr" = type { ptr, %"class.std::__shared_count" }
%"class.std::__shared_count" = type { ptr }
%"class.pxrInternal_v0_24__pxrReserved__::TsKeyFrame" = type { %"class.pxrInternal_v0_24__pxrReserved__::Ts_PolymorphicDataHolder" }
%"class.pxrInternal_v0_24__pxrReserved__::Ts_PolymorphicDataHolder" = type { %"union.std::aligned_storage<72, 8>::type" }
%"union.std::aligned_storage<72, 8>::type" = type { [72 x i8] }
%"struct.pxrInternal_v0_24__pxrReserved__::Ts_TypedData<double>::_Values" = type { double, double, double, double }
%"class.pxrInternal_v0_24__pxrReserved__::Ts_TypedData" = type <{ %"class.pxrInternal_v0_24__pxrReserved__::Ts_Data", %"class.pxrInternal_v0_24__pxrReserved__::Ts_TypedData<double>::_ValuesHolder", double, double, i32, i8, i8, [2 x i8] }>
%"class.pxrInternal_v0_24__pxrReserved__::Ts_Data" = type { ptr, double }
%"class.pxrInternal_v0_24__pxrReserved__::Ts_TypedData<double>::_ValuesHolder" = type { %union.anon }
%union.anon = type { %"struct.pxrInternal_v0_24__pxrReserved__::Ts_TypedData<double>::_ValuesHolder::_LocalStorage" }
%"struct.pxrInternal_v0_24__pxrReserved__::Ts_TypedData<double>::_ValuesHolder::_LocalStorage" = type { %"struct.pxrInternal_v0_24__pxrReserved__::Ts_TypedData<double>::_Values" }

@_ZN32pxrInternal_v0_24__pxrReserved__8TsTraitsIdE4zeroE = external constant double, align 8

; Function Attrs: mustprogress nounwind uwtable
define linkonce_odr dso_local void @_ZN32pxrInternal_v0_24__pxrReserved__12Ts_TypedDataIdE13_ValuesHolder13_LocalStorageC2EONS1_7_ValuesIdEE(ptr noundef nonnull align 8 dereferenceable(32) %0, ptr noundef nonnull align 8 dereferenceable(32) %1) unnamed_addr #5 comdat align 2 {
  %3 = alloca ptr, align 8
  %4 = alloca ptr, align 8
  store ptr %0, ptr %3, align 8
  store ptr %1, ptr %4, align 8
  %5 = load ptr, ptr %3, align 8
  %6 = getelementptr inbounds nuw %"struct.pxrInternal_v0_24__pxrReserved__::Ts_TypedData<double>::_ValuesHolder::_LocalStorage", ptr %5, i32 0, i32 0
  %7 = load ptr, ptr %4, align 8
  call void @llvm.memcpy.p0.p0.i64(ptr align 8 %6, ptr align 8 %7, i64 32, i1 false)
  ret void
}

; Function Attrs: mustprogress nounwind uwtable
define linkonce_odr dso_local void @_ZN32pxrInternal_v0_24__pxrReserved__7Ts_DataD2Ev(ptr noundef nonnull align 8 dereferenceable(16) %0) unnamed_addr #5 comdat align 2 {
  %2 = alloca ptr, align 8
  store ptr %0, ptr %2, align 8
  ret void
}

; Function Attrs: mustprogress nounwind uwtable
define linkonce_odr dso_local void @_ZN32pxrInternal_v0_24__pxrReserved__12Ts_TypedDataIdE13_ValuesHolderD2Ev(ptr noundef nonnull align 8 dereferenceable(32) %0) unnamed_addr #5 comdat align 2 {
  %2 = alloca ptr, align 8
  store ptr %0, ptr %2, align 8
  ret void
}

; Function Attrs: mustprogress nounwind uwtable
define linkonce_odr dso_local void @_ZN32pxrInternal_v0_24__pxrReserved__7Ts_Data7SetTimeEd(ptr noundef nonnull align 8 dereferenceable(16) %0, double noundef %1) #5 comdat align 2 {
  %3 = alloca ptr, align 8
  %4 = alloca double, align 8
  store ptr %0, ptr %3, align 8
  store double %1, ptr %4, align 8
  %5 = load ptr, ptr %3, align 8
  %6 = load double, ptr %4, align 8
  %7 = getelementptr inbounds nuw %"class.pxrInternal_v0_24__pxrReserved__::Ts_Data", ptr %5, i32 0, i32 1
  store double %6, ptr %7, align 8
  ret void
}

; Function Attrs: mustprogress uwtable
define linkonce_odr dso_local void @_ZN32pxrInternal_v0_24__pxrReserved__12Ts_TypedDataIdE13_ValuesHolderC2EONS1_7_ValuesIdEE(ptr noundef nonnull align 8 dereferenceable(32) %0, ptr noundef nonnull align 8 dereferenceable(32) %1) unnamed_addr #4 comdat align 2 {
  %3 = alloca ptr, align 8
  %4 = alloca ptr, align 8
  store ptr %0, ptr %3, align 8
  store ptr %1, ptr %4, align 8
  %5 = load ptr, ptr %3, align 8
  %6 = getelementptr inbounds nuw %"class.pxrInternal_v0_24__pxrReserved__::Ts_TypedData<double>::_ValuesHolder", ptr %5, i32 0, i32 0
  %7 = load ptr, ptr %4, align 8
  call void @_ZN32pxrInternal_v0_24__pxrReserved__12Ts_TypedDataIdE13_ValuesHolder13_LocalStorageC2EONS1_7_ValuesIdEE(ptr noundef nonnull align 8 dereferenceable(32) %6, ptr noundef nonnull align 8 dereferenceable(32) %7)
  ret void
}

; Function Attrs: mustprogress nounwind uwtable
define linkonce_odr dso_local void @_ZN32pxrInternal_v0_24__pxrReserved__12Ts_TypedDataIdE7_ValuesIdEC2ERKdS5_S5_S5_(ptr noundef nonnull align 8 dereferenceable(32) %0, ptr noundef nonnull align 8 dereferenceable(8) %1, ptr noundef nonnull align 8 dereferenceable(8) %2, ptr noundef nonnull align 8 dereferenceable(8) %3, ptr noundef nonnull align 8 dereferenceable(8) %4) unnamed_addr #5 comdat align 2 {
  %6 = alloca ptr, align 8
  %7 = alloca ptr, align 8
  %8 = alloca ptr, align 8
  %9 = alloca ptr, align 8
  %10 = alloca ptr, align 8
  store ptr %0, ptr %6, align 8
  store ptr %1, ptr %7, align 8
  store ptr %2, ptr %8, align 8
  store ptr %3, ptr %9, align 8
  store ptr %4, ptr %10, align 8
  %11 = load ptr, ptr %6, align 8
  %12 = getelementptr inbounds nuw %"struct.pxrInternal_v0_24__pxrReserved__::Ts_TypedData<double>::_Values", ptr %11, i32 0, i32 0
  %13 = load ptr, ptr %7, align 8
  %14 = load double, ptr %13, align 8
  store double %14, ptr %12, align 8
  %15 = getelementptr inbounds nuw %"struct.pxrInternal_v0_24__pxrReserved__::Ts_TypedData<double>::_Values", ptr %11, i32 0, i32 1
  %16 = load ptr, ptr %8, align 8
  %17 = load double, ptr %16, align 8
  store double %17, ptr %15, align 8
  %18 = getelementptr inbounds nuw %"struct.pxrInternal_v0_24__pxrReserved__::Ts_TypedData<double>::_Values", ptr %11, i32 0, i32 2
  %19 = load ptr, ptr %9, align 8
  %20 = load double, ptr %19, align 8
  store double %20, ptr %18, align 8
  %21 = getelementptr inbounds nuw %"struct.pxrInternal_v0_24__pxrReserved__::Ts_TypedData<double>::_Values", ptr %11, i32 0, i32 3
  %22 = load ptr, ptr %10, align 8
  %23 = load double, ptr %22, align 8
  store double %23, ptr %21, align 8
  ret void
}

; Function Attrs: mustprogress nounwind uwtable
define linkonce_odr dso_local void @_ZN32pxrInternal_v0_24__pxrReserved__7Ts_DataC2Ev(ptr noundef nonnull align 8 dereferenceable(16) %0) unnamed_addr #5 comdat align 2 {
  %2 = alloca ptr, align 8
  store ptr %0, ptr %2, align 8
  %3 = load ptr, ptr %2, align 8
  store ptr getelementptr inbounds inrange(-16, 288) ({ [38 x ptr] }, ptr @_ZTVN32pxrInternal_v0_24__pxrReserved__7Ts_DataE, i32 0, i32 0, i32 2), ptr %3, align 8
  %4 = getelementptr inbounds nuw %"class.pxrInternal_v0_24__pxrReserved__::Ts_Data", ptr %3, i32 0, i32 1
  store double 0.000000e+00, ptr %4, align 8
  ret void
}

; Function Attrs: mustprogress uwtable
define linkonce_odr dso_local void @_ZN32pxrInternal_v0_24__pxrReserved__12Ts_TypedDataIdEC2ERKdbS3_S3_S3_S3_(ptr noundef nonnull align 8 dereferenceable(70) %0, ptr noundef nonnull align 8 dereferenceable(8) %1, i1 noundef zeroext %2, ptr noundef nonnull align 8 dereferenceable(8) %3, ptr noundef nonnull align 8 dereferenceable(8) %4, ptr noundef nonnull align 8 dereferenceable(8) %5, ptr noundef nonnull align 8 dereferenceable(8) %6) unnamed_addr #4 comdat align 2 personality ptr @__gxx_personality_v0 {
  %8 = alloca ptr, align 8
  %9 = alloca ptr, align 8
  %10 = alloca i8, align 1
  %11 = alloca ptr, align 8
  %12 = alloca ptr, align 8
  %13 = alloca ptr, align 8
  %14 = alloca ptr, align 8
  %15 = alloca %"struct.pxrInternal_v0_24__pxrReserved__::Ts_TypedData<double>::_Values", align 8
  %16 = alloca ptr, align 8
  %17 = alloca i32, align 4
  store ptr %0, ptr %8, align 8
  store ptr %1, ptr %9, align 8
  %18 = zext i1 %2 to i8
  store i8 %18, ptr %10, align 1
  store ptr %3, ptr %11, align 8
  store ptr %4, ptr %12, align 8
  store ptr %5, ptr %13, align 8
  store ptr %6, ptr %14, align 8
  %19 = load ptr, ptr %8, align 8
  call void @_ZN32pxrInternal_v0_24__pxrReserved__7Ts_DataC2Ev(ptr noundef nonnull align 8 dereferenceable(16) %19) #3
  store ptr getelementptr inbounds inrange(-16, 288) ({ [38 x ptr] }, ptr @_ZTVN32pxrInternal_v0_24__pxrReserved__12Ts_TypedDataIdEE, i32 0, i32 0, i32 2), ptr %19, align 8
  %20 = getelementptr inbounds nuw %"class.pxrInternal_v0_24__pxrReserved__::Ts_TypedData", ptr %19, i32 0, i32 1
  %21 = load ptr, ptr %11, align 8
  %22 = load ptr, ptr %12, align 8
  %23 = load ptr, ptr %13, align 8
  %24 = load ptr, ptr %14, align 8
  invoke void @_ZN32pxrInternal_v0_24__pxrReserved__12Ts_TypedDataIdE7_ValuesIdEC2ERKdS5_S5_S5_(ptr noundef nonnull align 8 dereferenceable(32) %15, ptr noundef nonnull align 8 dereferenceable(8) %21, ptr noundef nonnull align 8 dereferenceable(8) %22, ptr noundef nonnull align 8 dereferenceable(8) %23, ptr noundef nonnull align 8 dereferenceable(8) %24)
          to label %25 unwind label %38

25:                                               ; preds = %7
  invoke void @_ZN32pxrInternal_v0_24__pxrReserved__12Ts_TypedDataIdE13_ValuesHolderC2EONS1_7_ValuesIdEE(ptr noundef nonnull align 8 dereferenceable(32) %20, ptr noundef nonnull align 8 dereferenceable(32) %15)
          to label %26 unwind label %38

26:                                               ; preds = %25
  %27 = getelementptr inbounds nuw %"class.pxrInternal_v0_24__pxrReserved__::Ts_TypedData", ptr %19, i32 0, i32 2
  store double 0.000000e+00, ptr %27, align 8
  %28 = getelementptr inbounds nuw %"class.pxrInternal_v0_24__pxrReserved__::Ts_TypedData", ptr %19, i32 0, i32 3
  store double 0.000000e+00, ptr %28, align 8
  %29 = getelementptr inbounds nuw %"class.pxrInternal_v0_24__pxrReserved__::Ts_TypedData", ptr %19, i32 0, i32 4
  store i32 0, ptr %29, align 8
  %30 = getelementptr inbounds nuw %"class.pxrInternal_v0_24__pxrReserved__::Ts_TypedData", ptr %19, i32 0, i32 5
  %31 = load i8, ptr %10, align 1
  %32 = trunc i8 %31 to i1
  %33 = zext i1 %32 to i8
  store i8 %33, ptr %30, align 4
  %34 = getelementptr inbounds nuw %"class.pxrInternal_v0_24__pxrReserved__::Ts_TypedData", ptr %19, i32 0, i32 6
  store i8 0, ptr %34, align 1
  %35 = load ptr, ptr %9, align 8
  %36 = load double, ptr %35, align 8
  invoke void @_ZN32pxrInternal_v0_24__pxrReserved__7Ts_Data7SetTimeEd(ptr noundef nonnull align 8 dereferenceable(16) %19, double noundef %36)
          to label %37 unwind label %42

37:                                               ; preds = %26
  ret void

38:                                               ; preds = %25, %7
  %39 = landingpad { ptr, i32 }
          cleanup
  %40 = extractvalue { ptr, i32 } %39, 0
  store ptr %40, ptr %16, align 8
  %41 = extractvalue { ptr, i32 } %39, 1
  store i32 %41, ptr %17, align 4
  br label %46

42:                                               ; preds = %26
  %43 = landingpad { ptr, i32 }
          cleanup
  %44 = extractvalue { ptr, i32 } %43, 0
  store ptr %44, ptr %16, align 8
  %45 = extractvalue { ptr, i32 } %43, 1
  store i32 %45, ptr %17, align 4
  call void @_ZN32pxrInternal_v0_24__pxrReserved__12Ts_TypedDataIdE13_ValuesHolderD2Ev(ptr noundef nonnull align 8 dereferenceable(32) %20) #3
  br label %46

46:                                               ; preds = %42, %38
  call void @_ZN32pxrInternal_v0_24__pxrReserved__7Ts_DataD2Ev(ptr noundef nonnull align 8 dereferenceable(16) %19) #3
  br label %47

47:                                               ; preds = %46
  %48 = load ptr, ptr %16, align 8
  %49 = load i32, ptr %17, align 4
  %50 = insertvalue { ptr, i32 } poison, ptr %48, 0
  %51 = insertvalue { ptr, i32 } %50, i32 %49, 1
  resume { ptr, i32 } %51
}

; Function Attrs: mustprogress uwtable
define linkonce_odr dso_local void @_ZN32pxrInternal_v0_24__pxrReserved__24Ts_PolymorphicDataHolder3NewIdEEvRKdbRKT_S6_S6_S6_(ptr noundef nonnull align 8 dereferenceable(72) %0, ptr noundef nonnull align 8 dereferenceable(8) %1, i1 noundef zeroext %2, ptr noundef nonnull align 8 dereferenceable(8) %3, ptr noundef nonnull align 8 dereferenceable(8) %4, ptr noundef nonnull align 8 dereferenceable(8) %5, ptr noundef nonnull align 8 dereferenceable(8) %6) #4 comdat align 2 {
  %8 = alloca ptr, align 8
  %9 = alloca ptr, align 8
  %10 = alloca i8, align 1
  %11 = alloca ptr, align 8
  %12 = alloca ptr, align 8
  %13 = alloca ptr, align 8
  %14 = alloca ptr, align 8
  store ptr %0, ptr %8, align 8
  store ptr %1, ptr %9, align 8
  %15 = zext i1 %2 to i8
  store i8 %15, ptr %10, align 1
  store ptr %3, ptr %11, align 8
  store ptr %4, ptr %12, align 8
  store ptr %5, ptr %13, align 8
  store ptr %6, ptr %14, align 8
  %16 = load ptr, ptr %8, align 8
  %17 = getelementptr inbounds nuw %"class.pxrInternal_v0_24__pxrReserved__::Ts_PolymorphicDataHolder", ptr %16, i32 0, i32 0
  %18 = load ptr, ptr %9, align 8
  %19 = load i8, ptr %10, align 1
  %20 = trunc i8 %19 to i1
  %21 = load ptr, ptr %11, align 8
  %22 = load ptr, ptr %12, align 8
  %23 = load ptr, ptr %13, align 8
  %24 = load ptr, ptr %14, align 8
  call void @_ZN32pxrInternal_v0_24__pxrReserved__12Ts_TypedDataIdEC2ERKdbS3_S3_S3_S3_(ptr noundef nonnull align 8 dereferenceable(70) %17, ptr noundef nonnull align 8 dereferenceable(8) %18, i1 noundef zeroext %20, ptr noundef nonnull align 8 dereferenceable(8) %21, ptr noundef nonnull align 8 dereferenceable(8) %22, ptr noundef nonnull align 8 dereferenceable(8) %23, ptr noundef nonnull align 8 dereferenceable(8) %24)
  ret void
}

; Function Attrs: mustprogress uwtable
define linkonce_odr dso_local void @_ZN32pxrInternal_v0_24__pxrReserved__10TsKeyFrameC2IdEERKdRKT_NS_10TsKnotTypeES6_S6_dd(ptr noundef nonnull align 8 dereferenceable(72) %0, ptr noundef nonnull align 8 dereferenceable(8) %1, ptr noundef nonnull align 8 dereferenceable(8) %2, i32 noundef %3, ptr noundef nonnull align 8 dereferenceable(8) %4, ptr noundef nonnull align 8 dereferenceable(8) %5, double noundef %6, double noundef %7) unnamed_addr #4 comdat align 2 {
  %9 = alloca ptr, align 8
  %10 = alloca ptr, align 8
  %11 = alloca ptr, align 8
  %12 = alloca i32, align 4
  %13 = alloca ptr, align 8
  %14 = alloca ptr, align 8
  %15 = alloca double, align 8
  %16 = alloca double, align 8
  store ptr %0, ptr %9, align 8
  store ptr %1, ptr %10, align 8
  store ptr %2, ptr %11, align 8
  store i32 %3, ptr %12, align 4
  store ptr %4, ptr %13, align 8
  store ptr %5, ptr %14, align 8
  store double %6, ptr %15, align 8
  store double %7, ptr %16, align 8
  %17 = load ptr, ptr %9, align 8
  %18 = getelementptr inbounds nuw %"class.pxrInternal_v0_24__pxrReserved__::TsKeyFrame", ptr %17, i32 0, i32 0
  %19 = load ptr, ptr %10, align 8
  %20 = load ptr, ptr %11, align 8
  %21 = load ptr, ptr %11, align 8
  %22 = load ptr, ptr %13, align 8
  %23 = load ptr, ptr %14, align 8
  call void @_ZN32pxrInternal_v0_24__pxrReserved__24Ts_PolymorphicDataHolder3NewIdEEvRKdbRKT_S6_S6_S6_(ptr noundef nonnull align 8 dereferenceable(72) %18, ptr noundef nonnull align 8 dereferenceable(8) %19, i1 noundef zeroext false, ptr noundef nonnull align 8 dereferenceable(8) %20, ptr noundef nonnull align 8 dereferenceable(8) %21, ptr noundef nonnull align 8 dereferenceable(8) %22, ptr noundef nonnull align 8 dereferenceable(8) %23)
  %24 = load i32, ptr %12, align 4
  call void @_ZN32pxrInternal_v0_24__pxrReserved__10TsKeyFrame19_InitializeKnotTypeENS_10TsKnotTypeE(ptr noundef nonnull align 8 dereferenceable(72) %17, i32 noundef %24)
  %25 = load double, ptr %15, align 8
  %26 = load double, ptr %16, align 8
  call void @_ZN32pxrInternal_v0_24__pxrReserved__10TsKeyFrame24_InitializeTangentLengthEdd(ptr noundef nonnull align 8 dereferenceable(72) %17, double noundef %25, double noundef %26)
  ret void
}

; Function Attrs: mustprogress uwtable
define dso_local void @_Z11SetKeyFrameN32pxrInternal_v0_24__pxrReserved__8TsSplineEdd(ptr dead_on_unwind noalias writable sret(%"class.pxrInternal_v0_24__pxrReserved__::TsSpline") align 8 %0, ptr noundef %1, double noundef %2, double noundef %3) #4 personality ptr @__gxx_personality_v0 {
  %5 = alloca ptr, align 8
  %6 = alloca ptr, align 8
  %7 = alloca double, align 8
  %8 = alloca double, align 8
  %9 = alloca %"class.pxrInternal_v0_24__pxrReserved__::TsKeyFrame", align 8
  %10 = alloca ptr, align 8
  %11 = alloca i32, align 4
  store ptr %0, ptr %5, align 8
  store ptr %1, ptr %6, align 8
  store double %2, ptr %7, align 8
  store double %3, ptr %8, align 8
  call void @_ZN32pxrInternal_v0_24__pxrReserved__10TsKeyFrameC2IdEERKdRKT_NS_10TsKnotTypeES6_S6_dd(ptr noundef nonnull align 8 dereferenceable(72) %9, ptr noundef nonnull align 8 dereferenceable(8) %7, ptr noundef nonnull align 8 dereferenceable(8) %8, i32 noundef 1, ptr noundef nonnull align 8 dereferenceable(8) @_ZN32pxrInternal_v0_24__pxrReserved__8TsTraitsIdE4zeroE, ptr noundef nonnull align 8 dereferenceable(8) @_ZN32pxrInternal_v0_24__pxrReserved__8TsTraitsIdE4zeroE, double noundef 0.000000e+00, double noundef 0.000000e+00)
  invoke void @_ZN32pxrInternal_v0_24__pxrReserved__8TsSpline11SetKeyFrameENS_10TsKeyFrameEPNS_10GfIntervalE(ptr noundef nonnull align 8 dereferenceable(16) %1, ptr noundef %9, ptr noundef null)
          to label %12 unwind label %13

12:                                               ; preds = %4
  call void @_ZN32pxrInternal_v0_24__pxrReserved__10TsKeyFrameD1Ev(ptr noundef nonnull align 8 dereferenceable(72) %9) #3
  call void @_ZN32pxrInternal_v0_24__pxrReserved__8TsSplineC1ERKS0_(ptr noundef nonnull align 8 dereferenceable(16) %0, ptr noundef nonnull align 8 dereferenceable(16) %1)
  ret void

13:                                               ; preds = %4
  %14 = landingpad { ptr, i32 }
          cleanup
  %15 = extractvalue { ptr, i32 } %14, 0
  store ptr %15, ptr %10, align 8
  %16 = extractvalue { ptr, i32 } %14, 1
  store i32 %16, ptr %11, align 4
  call void @_ZN32pxrInternal_v0_24__pxrReserved__10TsKeyFrameD1Ev(ptr noundef nonnull align 8 dereferenceable(72) %9) #3
  br label %17

17:                                               ; preds = %13
  %18 = load ptr, ptr %10, align 8
  %19 = load i32, ptr %11, align 4
  %20 = insertvalue { ptr, i32 } poison, ptr %18, 0
  %21 = insertvalue { ptr, i32 } %20, i32 %19, 1
  resume { ptr, i32 } %21
}