; Function Attrs: mustprogress uwtable
define dso_local void @_Z11SetKeyFrameN32pxrInternal_v0_24__pxrReserved__8TsSplineEdd(ptr dead_on_unwind noalias writable sret(%"class.pxrInternal_v0_24__pxrReserved__::TsSpline") align 8 %0, ptr noundef %1, double noundef %2, double noundef %3) #3 personality ptr @__gxx_personality_v0 {
  %5 = alloca %"class.pxrInternal_v0_24__pxrReserved__::TsKeyFrame", align 8
  %6 = getelementptr inbounds nuw i8, ptr %5, i64 8
  store ptr getelementptr inbounds nuw inrange(-16, 288) (i8, ptr @_ZTVN32pxrInternal_v0_24__pxrReserved__12Ts_TypedDataIdEE, i64 16), ptr %5, align 8
  %7 = getelementptr inbounds nuw i8, ptr %5, i64 16
  %8 = load double, ptr @_ZN32pxrInternal_v0_24__pxrReserved__8TsTraitsIdE4zeroE, align 8
  store double %3, ptr %7, align 8
  %.sroa.2.0..sroa_idx.i.i.i = getelementptr inbounds nuw i8, ptr %5, i64 24
  store double %3, ptr %.sroa.2.0..sroa_idx.i.i.i, align 8
  %.sroa.3.0..sroa_idx.i.i.i = getelementptr inbounds nuw i8, ptr %5, i64 32
  store double %8, ptr %.sroa.3.0..sroa_idx.i.i.i, align 8
  %.sroa.4.0..sroa_idx.i.i.i = getelementptr inbounds nuw i8, ptr %5, i64 40
  store double %8, ptr %.sroa.4.0..sroa_idx.i.i.i, align 8
  %9 = getelementptr inbounds nuw i8, ptr %5, i64 48
  call void @llvm.memset.p0.i64(ptr noundef nonnull align 8 dereferenceable(22) %9, i8 0, i64 22, i1 false)
  store double %2, ptr %6, align 8
  call void @_ZN32pxrInternal_v0_24__pxrReserved__10TsKeyFrame19_InitializeKnotTypeENS_10TsKnotTypeE(ptr noundef nonnull align 8 dereferenceable(72) %5, i32 noundef 1)
  call void @_ZN32pxrInternal_v0_24__pxrReserved__10TsKeyFrame24_InitializeTangentLengthEdd(ptr noundef nonnull align 8 dereferenceable(72) %5, double noundef 0.000000e+00, double noundef 0.000000e+00)
  invoke void @_ZN32pxrInternal_v0_24__pxrReserved__8TsSpline11SetKeyFrameENS_10TsKeyFrameEPNS_10GfIntervalE(ptr noundef nonnull align 8 dereferenceable(16) %1, ptr noundef nonnull %5, ptr noundef null)
          to label %10 unwind label %11

10:                                               ; preds = %4
  call void @_ZN32pxrInternal_v0_24__pxrReserved__10TsKeyFrameD1Ev(ptr noundef nonnull align 8 dereferenceable(72) %5) #22
  call void @_ZN32pxrInternal_v0_24__pxrReserved__8TsSplineC1ERKS0_(ptr noundef nonnull align 8 dereferenceable(16) %0, ptr noundef nonnull align 8 dereferenceable(16) %1)
  ret void

11:                                               ; preds = %4
  %12 = landingpad { ptr, i32 }
          cleanup
  call void @_ZN32pxrInternal_v0_24__pxrReserved__10TsKeyFrameD1Ev(ptr noundef nonnull align 8 dereferenceable(72) %5) #22
  resume { ptr, i32 } %12
}